; Function Attrs: nounwind uwtable
define internal ptr @krb5kdf_dup(ptr noundef %0) #0 {
  %2 = load ptr, ptr %0, align 8, !tbaa !3
  %3 = tail call i32 @ossl_prov_is_running() #7
  %.not.i = icmp eq i32 %3, 0
  br i1 %.not.i, label %krb5kdf_new.exit.thread, label %4

4:                                                ; preds = %1
  %5 = tail call noalias ptr @CRYPTO_zalloc(i64 noundef 64, ptr noundef nonnull @.str, i32 noundef 67) #7
  %6 = icmp eq ptr %5, null
  br i1 %6, label %krb5kdf_new.exit.thread, label %7

7:                                                ; preds = %4
  store ptr %2, ptr %5, align 8, !tbaa !3
  %8 = getelementptr inbounds nuw i8, ptr %0, i64 32
  %9 = load ptr, ptr %8, align 8, !tbaa !13
  %10 = getelementptr inbounds nuw i8, ptr %0, i64 40
  %11 = load i64, ptr %10, align 8, !tbaa !14
  %12 = getelementptr inbounds nuw i8, ptr %5, i64 32
  %13 = getelementptr inbounds nuw i8, ptr %5, i64 40
  %14 = tail call i32 @ossl_prov_memdup(ptr noundef %9, i64 noundef %11, ptr noundef nonnull %12, ptr noundef nonnull %13) #7
  %.not17 = icmp eq i32 %14, 0
  br i1 %.not17, label %krb5kdf_free.exit, label %15

15:                                               ; preds = %7
  %16 = getelementptr inbounds nuw i8, ptr %0, i64 48
  %17 = load ptr, ptr %16, align 8, !tbaa !15
  %18 = getelementptr inbounds nuw i8, ptr %0, i64 56
  %19 = load i64, ptr %18, align 8, !tbaa !16
  %20 = getelementptr inbounds nuw i8, ptr %5, i64 48
  %21 = getelementptr inbounds nuw i8, ptr %5, i64 56
  %22 = tail call i32 @ossl_prov_memdup(ptr noundef %17, i64 noundef %19, ptr noundef nonnull %20, ptr noundef nonnull %21) #7
  %.not18 = icmp eq i32 %22, 0
  br i1 %.not18, label %krb5kdf_free.exit, label %23

23:                                               ; preds = %15
  %24 = getelementptr inbounds nuw i8, ptr %5, i64 8
  %25 = getelementptr inbounds nuw i8, ptr %0, i64 8
  %26 = tail call i32 @ossl_prov_cipher_copy(ptr noundef nonnull %24, ptr noundef nonnull %25) #7
  %.not19 = icmp eq i32 %26, 0
  br i1 %.not19, label %krb5kdf_free.exit, label %krb5kdf_new.exit.thread

krb5kdf_free.exit:                                ; preds = %7, %15, %23
  %27 = load ptr, ptr %5, align 8, !tbaa !3
  %28 = getelementptr inbounds nuw i8, ptr %5, i64 8
  tail call void @ossl_prov_cipher_reset(ptr noundef nonnull %28) #7
  %29 = load ptr, ptr %12, align 8, !tbaa !13
  %30 = load i64, ptr %13, align 8, !tbaa !14
  tail call void @CRYPTO_clear_free(ptr noundef %29, i64 noundef %30, ptr noundef nonnull @.str, i32 noundef 89) #7
  %31 = getelementptr inbounds nuw i8, ptr %5, i64 48
  %32 = load ptr, ptr %31, align 8, !tbaa !15
  %33 = getelementptr inbounds nuw i8, ptr %5, i64 56
  %34 = load i64, ptr %33, align 8, !tbaa !16
  tail call void @CRYPTO_clear_free(ptr noundef %32, i64 noundef %34, ptr noundef nonnull @.str, i32 noundef 90) #7
  tail call void @llvm.memset.p0.i64(ptr noundef nonnull align 8 dereferenceable(64) %28, i8 0, i64 56, i1 false)
  store ptr %27, ptr %5, align 8, !tbaa !3
  tail call void @CRYPTO_free(ptr noundef nonnull %5, ptr noundef nonnull @.str, i32 noundef 79) #7
  br label %krb5kdf_new.exit.thread

krb5kdf_new.exit.thread:                          ; preds = %4, %1, %23, %krb5kdf_free.exit
  %.0 = phi ptr [ null, %krb5kdf_free.exit ], [ %5, %23 ], [ null, %1 ], [ null, %4 ]
  ret ptr %.0
}